; ModuleID = '12/827.c'
source_filename = "12/827.c"
target datalayout = "e-m:e-p270:32:32-p271:32:32-p272:64:64-i64:64-f80:128-n8:16:32:64-S128"
target triple = "x86_64-pc-linux-gnu"

@.str = private unnamed_addr constant [3 x i8] c"%d\00", align 1
@.str.1 = private unnamed_addr constant [4 x i8] c" %d\00", align 1
@.str.2 = private unnamed_addr constant [4 x i8] c"%d\0A\00", align 1

; Function Attrs: noinline nounwind uwtable
define dso_local void @main() #0 {
  %1 = alloca [16 x i32], align 16
  %2 = alloca i32, align 4
  %3 = alloca i32, align 4
  %4 = alloca i32, align 4
  %5 = alloca i32, align 4
  store i32 0, i32* %4, align 4
  %6 = getelementptr inbounds [16 x i32], [16 x i32]* %1, i64 0, i64 0
  %7 = call i32 (i8*, ...) @__isoc99_scanf(i8* getelementptr inbounds ([3 x i8], [3 x i8]* @.str, i64 0, i64 0), i32* %6)
  br label %8

8:                                                ; preds = %82, %0
  store i32 0, i32* %4, align 4
  store i32 1, i32* %2, align 4
  br label %9

9:                                                ; preds = %16, %8
  %10 = load i32, i32* %2, align 4
  %11 = sext i32 %10 to i64
  %12 = getelementptr inbounds [16 x i32], [16 x i32]* %1, i64 0, i64 %11
  %13 = call i32 (i8*, ...) @__isoc99_scanf(i8* getelementptr inbounds ([4 x i8], [4 x i8]* @.str.1, i64 0, i64 0), i32* %12)
  %14 = load i32, i32* %2, align 4
  %15 = add nsw i32 %14, 1
  store i32 %15, i32* %2, align 4
  br label %16

16:                                               ; preds = %9
  %17 = load i32, i32* %2, align 4
  %18 = sub nsw i32 %17, 1
  %19 = sext i32 %18 to i64
  %20 = getelementptr inbounds [16 x i32], [16 x i32]* %1, i64 0, i64 %19
  %21 = load i32, i32* %20, align 4
  %22 = icmp ne i32 %21, 0
  br i1 %22, label %9, label %23

23:                                               ; preds = %16
  %24 = load i32, i32* %2, align 4
  %25 = sub nsw i32 %24, 1
  store i32 %25, i32* %3, align 4
  store i32 0, i32* %2, align 4
  br label %26

26:                                               ; preds = %71, %23
  %27 = load i32, i32* %2, align 4
  %28 = load i32, i32* %3, align 4
  %29 = icmp slt i32 %27, %28
  br i1 %29, label %30, label %74

30:                                               ; preds = %26
  store i32 1, i32* %5, align 4
  br label %31

31:                                               ; preds = %67, %30
  %32 = load i32, i32* %5, align 4
  %33 = load i32, i32* %3, align 4
  %34 = load i32, i32* %2, align 4
  %35 = sub nsw i32 %33, %34
  %36 = icmp slt i32 %32, %35
  br i1 %36, label %37, label %70

37:                                               ; preds = %31
  %38 = load i32, i32* %2, align 4
  %39 = sext i32 %38 to i64
  %40 = getelementptr inbounds [16 x i32], [16 x i32]* %1, i64 0, i64 %39
  %41 = load i32, i32* %40, align 4
  %42 = load i32, i32* %2, align 4
  %43 = load i32, i32* %5, align 4
  %44 = add nsw i32 %42, %43
  %45 = sext i32 %44 to i64
  %46 = getelementptr inbounds [16 x i32], [16 x i32]* %1, i64 0, i64 %45
  %47 = load i32, i32* %46, align 4
  %48 = mul nsw i32 2, %47
  %49 = icmp eq i32 %41, %48
  br i1 %49, label %63, label %50

50:                                               ; preds = %37
  %51 = load i32, i32* %2, align 4
  %52 = load i32, i32* %5, align 4
  %53 = add nsw i32 %51, %52
  %54 = sext i32 %53 to i64
  %55 = getelementptr inbounds [16 x i32], [16 x i32]* %1, i64 0, i64 %54
  %56 = load i32, i32* %55, align 4
  %57 = load i32, i32* %2, align 4
  %58 = sext i32 %57 to i64
  %59 = getelementptr inbounds [16 x i32], [16 x i32]* %1, i64 0, i64 %58
  %60 = load i32, i32* %59, align 4
  %61 = mul nsw i32 %60, 2
  %62 = icmp eq i32 %56, %61
  br i1 %62, label %63, label %66

63:                                               ; preds = %50, %37
  %64 = load i32, i32* %4, align 4
  %65 = add nsw i32 %64, 1
  store i32 %65, i32* %4, align 4
  br label %66

66:                                               ; preds = %63, %50
  br label %67

67:                                               ; preds = %66
  %68 = load i32, i32* %5, align 4
  %69 = add nsw i32 %68, 1
  store i32 %69, i32* %5, align 4
  br label %31

70:                                               ; preds = %31
  br label %71

71:                                               ; preds = %70
  %72 = load i32, i32* %2, align 4
  %73 = add nsw i32 %72, 1
  store i32 %73, i32* %2, align 4
  br label %26

74:                                               ; preds = %26
  %75 = load i32, i32* %4, align 4
  %76 = call i32 (i8*, ...) @printf(i8* getelementptr inbounds ([4 x i8], [4 x i8]* @.str.2, i64 0, i64 0), i32 %75)
  %77 = getelementptr inbounds [16 x i32], [16 x i32]* %1, i64 0, i64 0
  %78 = call i32 (i8*, ...) @__isoc99_scanf(i8* getelementptr inbounds ([3 x i8], [3 x i8]* @.str, i64 0, i64 0), i32* %77)
  %79 = getelementptr inbounds [16 x i32], [16 x i32]* %1, i64 0, i64 0
  %80 = load i32, i32* %79, align 16
  %81 = icmp ne i32 %80, -1
  br i1 %81, label %82, label %83

82:                                               ; preds = %74
  br label %8

83:                                               ; preds = %74
  ret void
}

declare dso_local i32 @__isoc99_scanf(i8*, ...) #1

declare dso_local i32 @printf(i8*, ...) #1


!llvm.module.flags = !{!0}
!llvm.ident = !{!1}

!0 = !{i32 1, !"wchar_size", i32 4}
!1 = !{!"clang version 10.0.0-4ubuntu1 "}
